target datalayout = "e-m:e-p270:32:32-p271:32:32-p272:64:64-i64:64-i128:128-f80:128-n8:16:32:64-S128"
target triple = "x86_64-pc-linux-gnu"

%struct.strvec = type { ptr, i64, i64 }
%struct.credential_capability = type { i8, [3 x i8] }
%struct.strbuf = type { i64, i64, ptr }
%struct.credential = type { %struct.string_list, %struct.strvec, %struct.strvec, %struct.strvec, i16, [2 x i8], %struct.credential_capability, %struct.credential_capability, ptr, ptr, ptr, ptr, ptr, ptr, ptr, i64, ptr }
%struct.string_list = type { ptr, i64, i64, i8, ptr }

@.str = private unnamed_addr constant [7 x i8] c"http.c\00", align 1
@sane_ctype = external constant [256 x i8], align 16
@.str.124 = private unnamed_addr constant [1 x i8] zeroinitializer, align 1
@__const.fwrite_wwwauth.buf = private unnamed_addr constant %struct.strbuf { i64 0, i64 0, ptr @strbuf_slopbuf }, align 8
@.str.192 = private unnamed_addr constant [18 x i8] c"www-authenticate:\00", align 1
@.str.193 = private unnamed_addr constant [47 x i8] c"should have at least one existing header value\00", align 1
@.str.194 = private unnamed_addr constant [2 x i8] c" \00", align 1
@.str.195 = private unnamed_addr constant [7 x i8] c"%s%s%s\00", align 1
@.str.196 = private unnamed_addr constant [6 x i8] c"http/\00", align 1

; Function Attrs: inlinehint nounwind uwtable
define internal i32 @sane_case(i32 noundef %0, i32 noundef %1) #5 {
  %3 = alloca i32, align 4
  %4 = alloca i32, align 4
  store i32 %0, ptr %3, align 4, !tbaa !19
  store i32 %1, ptr %4, align 4, !tbaa !19
  %5 = load i32, ptr %3, align 4, !tbaa !19
  %6 = trunc i32 %5 to i8
  %7 = zext i8 %6 to i64
  %8 = getelementptr inbounds nuw [256 x i8], ptr @sane_ctype, i64 0, i64 %7
  %9 = load i8, ptr %8, align 1, !tbaa !65
  %10 = zext i8 %9 to i32
  %11 = and i32 %10, 4
  %12 = icmp ne i32 %11, 0
  br i1 %12, label %13, label %18

13:                                               ; preds = %2
  %14 = load i32, ptr %3, align 4, !tbaa !19
  %15 = and i32 %14, -33
  %16 = load i32, ptr %4, align 4, !tbaa !19
  %17 = or i32 %15, %16
  store i32 %17, ptr %3, align 4, !tbaa !19
  br label %18

18:                                               ; preds = %13, %2
  %19 = load i32, ptr %3, align 4, !tbaa !19
  ret i32 %19
}

; Function Attrs: inlinehint nounwind uwtable
define internal i32 @is_hdr_continuation(ptr noundef %0, i64 noundef %1) #5 {
  %3 = alloca ptr, align 8
  %4 = alloca i64, align 8
  store ptr %0, ptr %3, align 8, !tbaa !4
  store i64 %1, ptr %4, align 8, !tbaa !9
  %5 = load i64, ptr %4, align 8, !tbaa !9
  %6 = icmp ne i64 %5, 0
  br i1 %6, label %7, label %19

7:                                                ; preds = %2
  %8 = load ptr, ptr %3, align 8, !tbaa !4
  %9 = load i8, ptr %8, align 1, !tbaa !65
  %10 = sext i8 %9 to i32
  %11 = icmp eq i32 %10, 32
  br i1 %11, label %17, label %12

12:                                               ; preds = %7
  %13 = load ptr, ptr %3, align 8, !tbaa !4
  %14 = load i8, ptr %13, align 1, !tbaa !65
  %15 = sext i8 %14 to i32
  %16 = icmp eq i32 %15, 9
  br label %17

17:                                               ; preds = %12, %7
  %18 = phi i1 [ true, %7 ], [ %16, %12 ]
  br label %19

19:                                               ; preds = %17, %2
  %20 = phi i1 [ false, %2 ], [ %18, %17 ]
  %21 = zext i1 %20 to i32
  ret i32 %21
}

; Function Attrs: inlinehint nounwind uwtable
define internal i32 @skip_iprefix_mem(ptr noundef %0, i64 noundef %1, ptr noundef %2, ptr noundef %3, ptr noundef %4) #5 {
  %6 = alloca i32, align 4
  %7 = alloca ptr, align 8
  %8 = alloca i64, align 8
  %9 = alloca ptr, align 8
  %10 = alloca ptr, align 8
  %11 = alloca ptr, align 8
  store ptr %0, ptr %7, align 8, !tbaa !4
  store i64 %1, ptr %8, align 8, !tbaa !9
  store ptr %2, ptr %9, align 8, !tbaa !4
  store ptr %3, ptr %10, align 8, !tbaa !68
  store ptr %4, ptr %11, align 8, !tbaa !250
  br label %12

12:                                               ; preds = %38, %5
  %13 = load ptr, ptr %9, align 8, !tbaa !4
  %14 = load i8, ptr %13, align 1, !tbaa !65
  %15 = icmp ne i8 %14, 0
  br i1 %15, label %21, label %16

16:                                               ; preds = %12
  %17 = load ptr, ptr %7, align 8, !tbaa !4
  %18 = load ptr, ptr %10, align 8, !tbaa !68
  store ptr %17, ptr %18, align 8, !tbaa !4
  %19 = load i64, ptr %8, align 8, !tbaa !9
  %20 = load ptr, ptr %11, align 8, !tbaa !250
  store i64 %19, ptr %20, align 8, !tbaa !9
  store i32 1, ptr %6, align 4
  br label %41

21:                                               ; preds = %12
  br label %22

22:                                               ; preds = %21
  %23 = load i64, ptr %8, align 8, !tbaa !9
  %24 = add i64 %23, -1
  store i64 %24, ptr %8, align 8, !tbaa !9
  %25 = icmp ugt i64 %23, 0
  br i1 %25, label %26, label %38

26:                                               ; preds = %22
  %27 = load ptr, ptr %7, align 8, !tbaa !4
  %28 = getelementptr inbounds nuw i8, ptr %27, i32 1
  store ptr %28, ptr %7, align 8, !tbaa !4
  %29 = load i8, ptr %27, align 1, !tbaa !65
  %30 = zext i8 %29 to i32
  %31 = call i32 @sane_case(i32 noundef %30, i32 noundef 32)
  %32 = load ptr, ptr %9, align 8, !tbaa !4
  %33 = getelementptr inbounds nuw i8, ptr %32, i32 1
  store ptr %33, ptr %9, align 8, !tbaa !4
  %34 = load i8, ptr %32, align 1, !tbaa !65
  %35 = zext i8 %34 to i32
  %36 = call i32 @sane_case(i32 noundef %35, i32 noundef 32)
  %37 = icmp eq i32 %31, %36
  br label %38

38:                                               ; preds = %26, %22
  %39 = phi i1 [ false, %22 ], [ %37, %26 ]
  br i1 %39, label %12, label %40, !llvm.loop !266

40:                                               ; preds = %38
  store i32 0, ptr %6, align 4
  br label %41

41:                                               ; preds = %40, %16
  %42 = load i32, ptr %6, align 4
  ret i32 %42
}

; Function Attrs: nounwind uwtable
define internal i64 @fwrite_wwwauth(ptr noundef %0, i64 noundef %1, i64 noundef %2, ptr noundef %3) #0 {
  %5 = alloca ptr, align 8
  %6 = alloca i64, align 8
  %7 = alloca i64, align 8
  %8 = alloca ptr, align 8
  %9 = alloca i64, align 8
  %10 = alloca ptr, align 8
  %11 = alloca %struct.strbuf, align 8
  %12 = alloca ptr, align 8
  %13 = alloca i64, align 8
  %14 = alloca ptr, align 8
  %15 = alloca ptr, align 8
  store ptr %0, ptr %5, align 8, !tbaa !4
  store i64 %1, ptr %6, align 8, !tbaa !9
  store i64 %2, ptr %7, align 8, !tbaa !9
  store ptr %3, ptr %8, align 8, !tbaa !11
  call void @llvm.lifetime.start.p0(i64 8, ptr %9) #11
  %16 = load i64, ptr %6, align 8, !tbaa !9
  %17 = load i64, ptr %7, align 8, !tbaa !9
  %18 = mul i64 %16, %17
  store i64 %18, ptr %9, align 8, !tbaa !9
  call void @llvm.lifetime.start.p0(i64 8, ptr %10) #11
  store ptr getelementptr inbounds nuw (%struct.credential, ptr @http_auth, i32 0, i32 1), ptr %10, align 8, !tbaa !258
  call void @llvm.lifetime.start.p0(i64 24, ptr %11) #11
  call void @llvm.memcpy.p0.p0.i64(ptr align 8 %11, ptr align 8 @__const.fwrite_wwwauth.buf, i64 24, i1 false)
  call void @llvm.lifetime.start.p0(i64 8, ptr %12) #11
  call void @llvm.lifetime.start.p0(i64 8, ptr %13) #11
  %19 = load ptr, ptr %5, align 8, !tbaa !4
  %20 = load i64, ptr %9, align 8, !tbaa !9
  %21 = call i32 @skip_iprefix_mem(ptr noundef %19, i64 noundef %20, ptr noundef @.str.192, ptr noundef %12, ptr noundef %13)
  %22 = icmp ne i32 %21, 0
  br i1 %22, label %23, label %33

23:                                               ; preds = %4
  %24 = load ptr, ptr %12, align 8, !tbaa !4
  %25 = load i64, ptr %13, align 8, !tbaa !9
  call void @strbuf_add(ptr noundef %11, ptr noundef %24, i64 noundef %25)
  call void @strbuf_trim(ptr noundef %11)
  %26 = load ptr, ptr %10, align 8, !tbaa !258
  %27 = getelementptr inbounds nuw %struct.strbuf, ptr %11, i32 0, i32 2
  %28 = load ptr, ptr %27, align 8, !tbaa !35
  %29 = call ptr @strvec_push(ptr noundef %26, ptr noundef %28)
  %30 = load i16, ptr getelementptr inbounds nuw (%struct.credential, ptr @http_auth, i32 0, i32 4), align 8
  %31 = and i16 %30, -2
  %32 = or i16 %31, 1
  store i16 %32, ptr getelementptr inbounds nuw (%struct.credential, ptr @http_auth, i32 0, i32 4), align 8
  br label %92

33:                                               ; preds = %4
  %34 = load i16, ptr getelementptr inbounds nuw (%struct.credential, ptr @http_auth, i32 0, i32 4), align 8
  %35 = and i16 %34, 1
  %36 = zext i16 %35 to i32
  %37 = icmp ne i32 %36, 0
  br i1 %37, label %38, label %81

38:                                               ; preds = %33
  %39 = load ptr, ptr %5, align 8, !tbaa !4
  %40 = load i64, ptr %9, align 8, !tbaa !9
  %41 = call i32 @is_hdr_continuation(ptr noundef %39, i64 noundef %40)
  %42 = icmp ne i32 %41, 0
  br i1 %42, label %43, label %81

43:                                               ; preds = %38
  %44 = load ptr, ptr %5, align 8, !tbaa !4
  %45 = load i64, ptr %9, align 8, !tbaa !9
  call void @strbuf_add(ptr noundef %11, ptr noundef %44, i64 noundef %45)
  call void @strbuf_trim(ptr noundef %11)
  %46 = load ptr, ptr %10, align 8, !tbaa !258
  %47 = getelementptr inbounds nuw %struct.strvec, ptr %46, i32 0, i32 1
  %48 = load i64, ptr %47, align 8, !tbaa !260
  %49 = icmp ne i64 %48, 0
  br i1 %49, label %51, label %50

50:                                               ; preds = %43
  call void (ptr, i32, ptr, ...) @BUG_fl(ptr noundef @.str, i32 noundef 273, ptr noundef @.str.193) #12
  unreachable

51:                                               ; preds = %43
  %52 = getelementptr inbounds nuw %struct.strbuf, ptr %11, i32 0, i32 1
  %53 = load i64, ptr %52, align 8, !tbaa !142
  %54 = icmp ne i64 %53, 0
  br i1 %54, label %55, label %79

55:                                               ; preds = %51
  call void @llvm.lifetime.start.p0(i64 8, ptr %14) #11
  %56 = load ptr, ptr %10, align 8, !tbaa !258
  %57 = getelementptr inbounds nuw %struct.strvec, ptr %56, i32 0, i32 0
  %58 = load ptr, ptr %57, align 8, !tbaa !261
  %59 = load ptr, ptr %10, align 8, !tbaa !258
  %60 = getelementptr inbounds nuw %struct.strvec, ptr %59, i32 0, i32 1
  %61 = load i64, ptr %60, align 8, !tbaa !260
  %62 = sub i64 %61, 1
  %63 = getelementptr inbounds nuw ptr, ptr %58, i64 %62
  %64 = load ptr, ptr %63, align 8, !tbaa !4
  %65 = call ptr @xstrdup(ptr noundef %64)
  store ptr %65, ptr %14, align 8, !tbaa !4
  call void @llvm.lifetime.start.p0(i64 8, ptr %15) #11
  %66 = load ptr, ptr %14, align 8, !tbaa !4
  %67 = load i8, ptr %66, align 1, !tbaa !65
  %68 = sext i8 %67 to i32
  %69 = icmp ne i32 %68, 0
  %70 = select i1 %69, ptr @.str.194, ptr @.str.124
  store ptr %70, ptr %15, align 8, !tbaa !4
  %71 = load ptr, ptr %10, align 8, !tbaa !258
  call void @strvec_pop(ptr noundef %71)
  %72 = load ptr, ptr %10, align 8, !tbaa !258
  %73 = load ptr, ptr %14, align 8, !tbaa !4
  %74 = load ptr, ptr %15, align 8, !tbaa !4
  %75 = getelementptr inbounds nuw %struct.strbuf, ptr %11, i32 0, i32 2
  %76 = load ptr, ptr %75, align 8, !tbaa !35
  %77 = call ptr (ptr, ptr, ...) @strvec_pushf(ptr noundef %72, ptr noundef @.str.195, ptr noundef %73, ptr noundef %74, ptr noundef %76)
  %78 = load ptr, ptr %14, align 8, !tbaa !4
  call void @free(ptr noundef %78) #11
  call void @llvm.lifetime.end.p0(i64 8, ptr %15) #11
  call void @llvm.lifetime.end.p0(i64 8, ptr %14) #11
  br label %79

79:                                               ; preds = %55, %51
  br label %80

80:                                               ; preds = %79
  br label %92

81:                                               ; preds = %38, %33
  %82 = load i16, ptr getelementptr inbounds nuw (%struct.credential, ptr @http_auth, i32 0, i32 4), align 8
  %83 = and i16 %82, -2
  %84 = or i16 %83, 0
  store i16 %84, ptr getelementptr inbounds nuw (%struct.credential, ptr @http_auth, i32 0, i32 4), align 8
  %85 = load ptr, ptr %5, align 8, !tbaa !4
  %86 = load i64, ptr %9, align 8, !tbaa !9
  %87 = call i32 @skip_iprefix_mem(ptr noundef %85, i64 noundef %86, ptr noundef @.str.196, ptr noundef %12, ptr noundef %13)
  %88 = icmp ne i32 %87, 0
  br i1 %88, label %89, label %91

89:                                               ; preds = %81
  %90 = load ptr, ptr %10, align 8, !tbaa !258
  call void @strvec_clear(ptr noundef %90)
  br label %91

91:                                               ; preds = %89, %81
  br label %92

92:                                               ; preds = %91, %80, %23
  call void @strbuf_release(ptr noundef %11)
  %93 = load i64, ptr %9, align 8, !tbaa !9
  call void @llvm.lifetime.end.p0(i64 8, ptr %13) #11
  call void @llvm.lifetime.end.p0(i64 8, ptr %12) #11
  call void @llvm.lifetime.end.p0(i64 24, ptr %11) #11
  call void @llvm.lifetime.end.p0(i64 8, ptr %10) #11
  call void @llvm.lifetime.end.p0(i64 8, ptr %9) #11
  ret i64 %93
}