; Function Attrs: nounwind uwtable
define internal noundef i64 @fwrite_wwwauth(ptr noundef %0, i64 noundef %1, i64 noundef %2, ptr readnone captures(none) %3) #3 {
  %5 = alloca %struct.strbuf, align 8
  %6 = mul i64 %2, %1
  call void @llvm.lifetime.start.p0(i64 24, ptr nonnull %5) #22
  call void @llvm.memcpy.p0.p0.i64(ptr noundef nonnull align 8 dereferenceable(24) %5, ptr noundef nonnull align 8 dereferenceable(24) @__const.fetch_pack_index.buf, i64 24, i1 false)
  %7 = add i64 %6, -17
  %scevgep = getelementptr i8, ptr %0, i64 17
  br label %8

8:                                                ; preds = %11, %4
  %.010.i = phi i64 [ %6, %4 ], [ %12, %11 ]
  %.09.i.idx = phi i64 [ 0, %4 ], [ %.09.i.add, %11 ]
  %.08.i = phi ptr [ %0, %4 ], [ %13, %11 ]
  %.09.i.ptr = getelementptr inbounds nuw i8, ptr @.str.192, i64 %.09.i.idx
  %9 = load i8, ptr %.09.i.ptr, align 1, !tbaa !24
  %exitcond = icmp eq i64 %.09.i.idx, 17
  br i1 %exitcond, label %skip_iprefix_mem.exit, label %10

10:                                               ; preds = %8
  %.not11.i = icmp eq i64 %.010.i, 0
  br i1 %.not11.i, label %31, label %11

11:                                               ; preds = %10
  %12 = add i64 %.010.i, -1
  %13 = getelementptr inbounds nuw i8, ptr %.08.i, i64 1
  %14 = load i8, ptr %.08.i, align 1, !tbaa !24
  %15 = zext i8 %14 to i64
  %16 = getelementptr inbounds nuw [256 x i8], ptr @sane_ctype, i64 0, i64 %15
  %17 = load i8, ptr %16, align 1, !tbaa !24
  %18 = shl i8 %17, 3
  %19 = and i8 %18, 32
  %spec.select.i13.i = or i8 %19, %14
  %.09.i.add = add nuw nsw i64 %.09.i.idx, 1
  %20 = zext i8 %9 to i64
  %21 = getelementptr inbounds nuw [256 x i8], ptr @sane_ctype, i64 0, i64 %20
  %22 = load i8, ptr %21, align 1, !tbaa !24
  %23 = shl i8 %22, 3
  %24 = and i8 %23, 32
  %spec.select.i1214.i = or i8 %24, %9
  %25 = icmp eq i8 %spec.select.i13.i, %spec.select.i1214.i
  br i1 %25, label %8, label %31, !llvm.loop !218

skip_iprefix_mem.exit:                            ; preds = %8
  call void @strbuf_add(ptr noundef nonnull %5, ptr noundef %scevgep, i64 noundef %7) #22
  call void @strbuf_trim(ptr noundef nonnull %5) #22
  %26 = getelementptr inbounds nuw i8, ptr %5, i64 16
  %27 = load ptr, ptr %26, align 8, !tbaa !23
  %28 = call ptr @strvec_push(ptr noundef nonnull getelementptr inbounds nuw (i8, ptr @http_auth, i64 40), ptr noundef %27) #22
  %29 = load i16, ptr getelementptr inbounds nuw (i8, ptr @http_auth, i64 112), align 8
  %30 = or i16 %29, 1
  store i16 %30, ptr getelementptr inbounds nuw (i8, ptr @http_auth, i64 112), align 8
  br label %skip_iprefix_mem.exit36.thread

31:                                               ; preds = %10, %11
  %32 = load i16, ptr getelementptr inbounds nuw (i8, ptr @http_auth, i64 112), align 8
  %33 = and i16 %32, 1
  %.not21 = icmp eq i16 %33, 0
  %.not.i27 = icmp eq i64 %6, 0
  %or.cond = or i1 %.not.i27, %.not21
  br i1 %or.cond, label %is_hdr_continuation.exit.thread, label %34

34:                                               ; preds = %31
  %35 = load i8, ptr %0, align 1, !tbaa !24
  switch i8 %35, label %is_hdr_continuation.exit.thread [
    i8 32, label %is_hdr_continuation.exit.thread42
    i8 9, label %is_hdr_continuation.exit.thread42
  ]

is_hdr_continuation.exit.thread42:                ; preds = %34, %34
  call void @strbuf_add(ptr noundef nonnull %5, ptr noundef nonnull %0, i64 noundef %6) #22
  call void @strbuf_trim(ptr noundef nonnull %5) #22
  %36 = load i64, ptr getelementptr inbounds nuw (i8, ptr @http_auth, i64 48), align 8, !tbaa !219
  %.not24 = icmp eq i64 %36, 0
  br i1 %.not24, label %37, label %38

37:                                               ; preds = %is_hdr_continuation.exit.thread42
  call void (ptr, i32, ptr, ...) @BUG_fl(ptr noundef nonnull @.str, i32 noundef 273, ptr noundef nonnull @.str.193) #21
  unreachable

38:                                               ; preds = %is_hdr_continuation.exit.thread42
  %39 = getelementptr inbounds nuw i8, ptr %5, i64 8
  %40 = load i64, ptr %39, align 8, !tbaa !30
  %.not25 = icmp eq i64 %40, 0
  br i1 %.not25, label %skip_iprefix_mem.exit36.thread, label %41

41:                                               ; preds = %38
  %42 = load ptr, ptr getelementptr inbounds nuw (i8, ptr @http_auth, i64 40), align 8, !tbaa !220
  %43 = getelementptr ptr, ptr %42, i64 %36
  %44 = getelementptr i8, ptr %43, i64 -8
  %45 = load ptr, ptr %44, align 8, !tbaa !41
  %46 = call ptr @xstrdup(ptr noundef %45) #22
  %47 = load i8, ptr %46, align 1, !tbaa !24
  %.not26 = icmp eq i8 %47, 0
  %48 = select i1 %.not26, ptr @.str.124, ptr @.str.194
  call void @strvec_pop(ptr noundef nonnull getelementptr inbounds nuw (i8, ptr @http_auth, i64 40)) #22
  %49 = getelementptr inbounds nuw i8, ptr %5, i64 16
  %50 = load ptr, ptr %49, align 8, !tbaa !23
  %51 = call ptr (ptr, ptr, ...) @strvec_pushf(ptr noundef nonnull getelementptr inbounds nuw (i8, ptr @http_auth, i64 40), ptr noundef nonnull @.str.195, ptr noundef nonnull %46, ptr noundef nonnull %48, ptr noundef %50) #22
  call void @free(ptr noundef %46) #22
  br label %skip_iprefix_mem.exit36.thread

is_hdr_continuation.exit.thread:                  ; preds = %34, %31
  %52 = and i16 %32, -2
  store i16 %52, ptr getelementptr inbounds nuw (i8, ptr @http_auth, i64 112), align 8
  br label %53

53:                                               ; preds = %56, %is_hdr_continuation.exit.thread
  %.010.i28 = phi i64 [ %6, %is_hdr_continuation.exit.thread ], [ %57, %56 ]
  %.09.i29.idx = phi i64 [ 0, %is_hdr_continuation.exit.thread ], [ %.09.i29.add, %56 ]
  %.08.i30 = phi ptr [ %0, %is_hdr_continuation.exit.thread ], [ %58, %56 ]
  %.09.i29.ptr = getelementptr inbounds nuw i8, ptr @.str.196, i64 %.09.i29.idx
  %54 = load i8, ptr %.09.i29.ptr, align 1, !tbaa !24
  %exitcond50 = icmp eq i64 %.09.i29.idx, 5
  br i1 %exitcond50, label %skip_iprefix_mem.exit36, label %55

55:                                               ; preds = %53
  %.not11.i32 = icmp eq i64 %.010.i28, 0
  br i1 %.not11.i32, label %skip_iprefix_mem.exit36.thread, label %56

56:                                               ; preds = %55
  %57 = add i64 %.010.i28, -1
  %58 = getelementptr inbounds nuw i8, ptr %.08.i30, i64 1
  %59 = load i8, ptr %.08.i30, align 1, !tbaa !24
  %60 = zext i8 %59 to i64
  %61 = getelementptr inbounds nuw [256 x i8], ptr @sane_ctype, i64 0, i64 %60
  %62 = load i8, ptr %61, align 1, !tbaa !24
  %63 = shl i8 %62, 3
  %64 = and i8 %63, 32
  %spec.select.i13.i33 = or i8 %64, %59
  %.09.i29.add = add nuw nsw i64 %.09.i29.idx, 1
  %65 = zext i8 %54 to i64
  %66 = getelementptr inbounds nuw [256 x i8], ptr @sane_ctype, i64 0, i64 %65
  %67 = load i8, ptr %66, align 1, !tbaa !24
  %68 = shl i8 %67, 3
  %69 = and i8 %68, 32
  %spec.select.i1214.i34 = or i8 %69, %54
  %70 = icmp eq i8 %spec.select.i13.i33, %spec.select.i1214.i34
  br i1 %70, label %53, label %skip_iprefix_mem.exit36.thread, !llvm.loop !218

skip_iprefix_mem.exit36:                          ; preds = %53
  tail call void @strvec_clear(ptr noundef nonnull getelementptr inbounds nuw (i8, ptr @http_auth, i64 40)) #22
  br label %skip_iprefix_mem.exit36.thread

skip_iprefix_mem.exit36.thread:                   ; preds = %56, %55, %skip_iprefix_mem.exit36, %41, %38, %skip_iprefix_mem.exit
  call void @strbuf_release(ptr noundef nonnull %5) #22
  call void @llvm.lifetime.end.p0(i64 24, ptr nonnull %5) #22
  ret i64 %6
}